In archive mem.lib:

mem.o:     file format elf64-littleriscv


Disassembly of section .text:

0000000000000000 <__mem_free>:
   0:	ff010113          	addi	sp,sp,-16
   4:	00813423          	sd	s0,8(sp)
   8:	01010413          	addi	s0,sp,16
   c:	00000597          	auipc	a1,0x0
  10:	00058593          	mv	a1,a1
  14:	0005b783          	ld	a5,0(a1) # c <__mem_free+0xc>
  18:	ff050693          	addi	a3,a0,-16
  1c:	0007b703          	ld	a4,0(a5)
  20:	00d7fc63          	bgeu	a5,a3,38 <.L4>

0000000000000024 <.L15>:
  24:	00e6ee63          	bltu	a3,a4,40 <.L3>
  28:	00e7fc63          	bgeu	a5,a4,40 <.L3>

000000000000002c <.L10>:
  2c:	00070793          	mv	a5,a4
  30:	0007b703          	ld	a4,0(a5)
  34:	fed7e8e3          	bltu	a5,a3,24 <.L15>

0000000000000038 <.L4>:
  38:	fee7eae3          	bltu	a5,a4,2c <.L10>
  3c:	fee6f8e3          	bgeu	a3,a4,2c <.L10>

0000000000000040 <.L3>:
  40:	ff852803          	lw	a6,-8(a0)
  44:	02081613          	slli	a2,a6,0x20
  48:	01c65613          	srli	a2,a2,0x1c
  4c:	00c68633          	add	a2,a3,a2
  50:	02c70a63          	beq	a4,a2,84 <.L16>
  54:	fee53823          	sd	a4,-16(a0)
  58:	0087a503          	lw	a0,8(a5)
  5c:	02051613          	slli	a2,a0,0x20
  60:	01c65613          	srli	a2,a2,0x1c
  64:	00c78633          	add	a2,a5,a2
  68:	04c68263          	beq	a3,a2,ac <.L17>

000000000000006c <.L8>:
  6c:	00813403          	ld	s0,8(sp)
  70:	00d7b023          	sd	a3,0(a5)
  74:	00f5b023          	sd	a5,0(a1)
  78:	00000513          	li	a0,0
  7c:	01010113          	addi	sp,sp,16
  80:	00008067          	ret

0000000000000084 <.L16>:
  84:	00872603          	lw	a2,8(a4)
  88:	00073703          	ld	a4,0(a4)
  8c:	0106083b          	addw	a6,a2,a6
  90:	ff052c23          	sw	a6,-8(a0)
  94:	fee53823          	sd	a4,-16(a0)
  98:	0087a503          	lw	a0,8(a5)
  9c:	02051613          	slli	a2,a0,0x20
  a0:	01c65613          	srli	a2,a2,0x1c
  a4:	00c78633          	add	a2,a5,a2
  a8:	fcc692e3          	bne	a3,a2,6c <.L8>

00000000000000ac <.L17>:
  ac:	00813403          	ld	s0,8(sp)
  b0:	0105053b          	addw	a0,a0,a6
  b4:	00a7a423          	sw	a0,8(a5)
  b8:	00e7b023          	sd	a4,0(a5)
  bc:	00f5b023          	sd	a5,0(a1)
  c0:	00000513          	li	a0,0
  c4:	01010113          	addi	sp,sp,16
  c8:	00008067          	ret

00000000000000cc <__mem_alloc>:
  cc:	fc010113          	addi	sp,sp,-64
  d0:	02813823          	sd	s0,48(sp)
  d4:	02913423          	sd	s1,40(sp)
  d8:	03213023          	sd	s2,32(sp)
  dc:	01513423          	sd	s5,8(sp)
  e0:	02113c23          	sd	ra,56(sp)
  e4:	01313c23          	sd	s3,24(sp)
  e8:	01413823          	sd	s4,16(sp)
  ec:	01613023          	sd	s6,0(sp)
  f0:	04010413          	addi	s0,sp,64
  f4:	00000a97          	auipc	s5,0x0
  f8:	000a8a93          	mv	s5,s5
  fc:	00f50913          	addi	s2,a0,15
 100:	000ab683          	ld	a3,0(s5) # f4 <__mem_alloc+0x28>
 104:	00495913          	srli	s2,s2,0x4
 108:	0019049b          	addiw	s1,s2,1
 10c:	00048913          	mv	s2,s1
 110:	0c068c63          	beqz	a3,1e8 <.L19>
 114:	0006b503          	ld	a0,0(a3)
 118:	00852703          	lw	a4,8(a0)

000000000000011c <.L20>:
 11c:	10977063          	bgeu	a4,s1,21c <.L35>
 120:	000017b7          	lui	a5,0x1
 124:	0009099b          	sext.w	s3,s2
 128:	0af4e863          	bltu	s1,a5,1d8 <.L36>

000000000000012c <.L25>:
 12c:	02099a13          	slli	s4,s3,0x20
 130:	01ca5a13          	srli	s4,s4,0x1c
 134:	fff00b13          	li	s6,-1
 138:	0100006f          	j	148 <.L29>

000000000000013c <.L26>:
 13c:	0007b503          	ld	a0,0(a5) # 1000 <.L35+0xde4>
 140:	00852703          	lw	a4,8(a0)
 144:	04977463          	bgeu	a4,s1,18c <.L28>

0000000000000148 <.L29>:
 148:	00050793          	mv	a5,a0
 14c:	fea698e3          	bne	a3,a0,13c <.L26>
 150:	000a0513          	mv	a0,s4
 154:	00000097          	auipc	ra,0x0
 158:	000080e7          	jalr	ra # 154 <.L29+0xc>
 15c:	00050793          	mv	a5,a0
 160:	01050513          	addi	a0,a0,16
 164:	07678e63          	beq	a5,s6,1e0 <.L27>
 168:	0137a423          	sw	s3,8(a5)
 16c:	00000097          	auipc	ra,0x0
 170:	000080e7          	jalr	ra # 16c <.L29+0x24>
 174:	000ab783          	ld	a5,0(s5)
 178:	06078463          	beqz	a5,1e0 <.L27>
 17c:	0007b503          	ld	a0,0(a5)
 180:	00078693          	mv	a3,a5
 184:	00852703          	lw	a4,8(a0)
 188:	fc9760e3          	bltu	a4,s1,148 <.L29>

000000000000018c <.L28>:
 18c:	08e48263          	beq	s1,a4,210 <.L37>
 190:	4127073b          	subw	a4,a4,s2
 194:	02071693          	slli	a3,a4,0x20
 198:	01c6d693          	srli	a3,a3,0x1c
 19c:	00e52423          	sw	a4,8(a0)
 1a0:	00d50533          	add	a0,a0,a3
 1a4:	01252423          	sw	s2,8(a0)

00000000000001a8 <.L23>:
 1a8:	00fab023          	sd	a5,0(s5)
 1ac:	01050513          	addi	a0,a0,16

00000000000001b0 <.L18>:
 1b0:	03813083          	ld	ra,56(sp)
 1b4:	03013403          	ld	s0,48(sp)
 1b8:	02813483          	ld	s1,40(sp)
 1bc:	02013903          	ld	s2,32(sp)
 1c0:	01813983          	ld	s3,24(sp)
 1c4:	01013a03          	ld	s4,16(sp)
 1c8:	00813a83          	ld	s5,8(sp)
 1cc:	00013b03          	ld	s6,0(sp)
 1d0:	04010113          	addi	sp,sp,64
 1d4:	00008067          	ret

00000000000001d8 <.L36>:
 1d8:	000019b7          	lui	s3,0x1
 1dc:	f51ff06f          	j	12c <.L25>

00000000000001e0 <.L27>:
 1e0:	00000513          	li	a0,0
 1e4:	fcdff06f          	j	1b0 <.L18>

00000000000001e8 <.L19>:
 1e8:	00000797          	auipc	a5,0x0
 1ec:	00078793          	mv	a5,a5
 1f0:	00078513          	mv	a0,a5
 1f4:	00fab023          	sd	a5,0(s5)
 1f8:	00f7b023          	sd	a5,0(a5) # 1e8 <.L19>
 1fc:	00000713          	li	a4,0
 200:	00000797          	auipc	a5,0x0
 204:	0007a023          	sw	zero,0(a5) # 200 <.L19+0x18>
 208:	00050693          	mv	a3,a0
 20c:	f11ff06f          	j	11c <.L20>

0000000000000210 <.L37>:
 210:	00053703          	ld	a4,0(a0)
 214:	00e7b023          	sd	a4,0(a5)
 218:	f91ff06f          	j	1a8 <.L23>

000000000000021c <.L35>:
 21c:	00068793          	mv	a5,a3
 220:	f6dff06f          	j	18c <.L28>
